; Function Attrs: mustprogress uwtable
define noundef i64 @_ZNK6google8protobuf10Int64Value12ByteSizeLongEv(ptr noundef nonnull align 8 dereferenceable(32) %this) unnamed_addr #3 align 2 personality ptr @__gxx_personality_v0 {
entry:
  %0 = getelementptr inbounds i8, ptr %this, i64 16
  %1 = load i64, ptr %0, align 8
  %cmp.not = icmp eq i64 %1, 0
  br i1 %cmp.not, label %if.end, label %if.then

if.then:                                          ; preds = %entry
  %or.i.i = or i64 %1, 1
  %2 = tail call i64 @llvm.ctlz.i64(i64 %or.i.i, i1 true), !range !6
  %sub.i.i = xor i64 %2, 63
  %mul.i.i = mul nuw nsw i64 %sub.i.i, 9
  %add1.i.i = add nuw nsw i64 %mul.i.i, 137
  %div1.i.i = lshr i64 %add1.i.i, 6
  br label %if.end

if.end:                                           ; preds = %if.then, %entry
  %total_size.0 = phi i64 [ %div1.i.i, %if.then ], [ 0, %entry ]
  %_cached_size_ = getelementptr inbounds i8, ptr %this, i64 24
  %call4 = tail call noundef i64 @_ZNK6google8protobuf7Message29MaybeComputeUnknownFieldsSizeEmPNS0_8internal10CachedSizeE(ptr noundef nonnull align 8 dereferenceable(16) %this, i64 noundef %total_size.0, ptr noundef nonnull %_cached_size_)
  ret i64 %call4
}